target datalayout = "e-m:e-p270:32:32-p271:32:32-p272:64:64-i64:64-i128:128-f80:128-n8:16:32:64-S128"
target triple = "x86_64-pc-linux-gnu"

%"class.cv::Matx" = type { [3 x double] }

; Function Attrs: inlinehint mustprogress nounwind uwtable
define linkonce_odr noundef double @_ZSt3absd(double noundef %0) #3 comdat {
  %2 = alloca double, align 8
  store double %0, ptr %2, align 8, !tbaa !14
  %3 = load double, ptr %2, align 8, !tbaa !14
  %4 = call double @llvm.fabs.f64(double %3)
  ret double %4
}

; Function Attrs: mustprogress nounwind uwtable
define hidden noundef double @_ZN2cv3ccm5toRadERKd(ptr noundef nonnull align 8 dereferenceable(8) %0) #6 {
  %2 = alloca ptr, align 8
  store ptr %0, ptr %2, align 8, !tbaa !12
  %3 = load ptr, ptr %2, align 8, !tbaa !12
  %4 = load double, ptr %3, align 8, !tbaa !14
  %5 = fdiv double %4, 1.800000e+02
  %6 = fmul double %5, 0x400921FB54442D18
  ret double %6
}

; Function Attrs: inlinehint mustprogress nounwind uwtable
define linkonce_odr noundef double @_ZSt3powIdiEN9__gnu_cxx11__promote_2IT_T0_NS0_9__promoteIS2_Xsr3std12__is_integerIS2_EE7__valueEE6__typeENS4_IS3_Xsr3std12__is_integerIS3_EE7__valueEE6__typeEE6__typeES2_S3_(double noundef %0, i32 noundef %1) #3 comdat {
  %3 = alloca double, align 8
  %4 = alloca i32, align 4
  store double %0, ptr %3, align 8, !tbaa !14
  store i32 %1, ptr %4, align 4, !tbaa !10
  %5 = load double, ptr %3, align 8, !tbaa !14
  %6 = load i32, ptr %4, align 4, !tbaa !10
  %7 = sitofp i32 %6 to double
  %8 = call double @pow(double noundef %5, double noundef %7) #13, !tbaa !10
  ret double %8
}

; Function Attrs: inlinehint mustprogress nounwind uwtable
define linkonce_odr hidden noundef nonnull align 8 dereferenceable(8) ptr @_ZNK2cv3VecIdLi3EEixEi(ptr noundef nonnull align 8 dereferenceable(24) %0, i32 noundef %1) #3 comdat align 2 {
  %3 = alloca ptr, align 8
  %4 = alloca i32, align 4
  store ptr %0, ptr %3, align 8, !tbaa !3
  store i32 %1, ptr %4, align 4, !tbaa !10
  %5 = load ptr, ptr %3, align 8
  %6 = getelementptr inbounds nuw %"class.cv::Matx", ptr %5, i32 0, i32 0
  %7 = load i32, ptr %4, align 4, !tbaa !10
  %8 = sext i32 %7 to i64
  %9 = getelementptr inbounds [3 x double], ptr %6, i64 0, i64 %8
  ret ptr %9
}

; Function Attrs: mustprogress uwtable
define hidden noundef double @_ZN2cv3ccm8deltaCMCERKNS_3VecIdLi3EEES4_RKdS6_(ptr noundef nonnull align 8 dereferenceable(24) %0, ptr noundef nonnull align 8 dereferenceable(24) %1, ptr noundef nonnull align 8 dereferenceable(8) %2, ptr noundef nonnull align 8 dereferenceable(8) %3) #0 {
  %5 = alloca ptr, align 8
  %6 = alloca ptr, align 8
  %7 = alloca ptr, align 8
  %8 = alloca ptr, align 8
  %9 = alloca double, align 8
  %10 = alloca double, align 8
  %11 = alloca double, align 8
  %12 = alloca double, align 8
  %13 = alloca double, align 8
  %14 = alloca double, align 8
  %15 = alloca double, align 8
  %16 = alloca double, align 8
  %17 = alloca double, align 8
  %18 = alloca double, align 8
  %19 = alloca double, align 8
  %20 = alloca double, align 8
  %21 = alloca double, align 8
  %22 = alloca double, align 8
  %23 = alloca double, align 8
  %24 = alloca double, align 8
  %25 = alloca double, align 8
  store ptr %0, ptr %5, align 8, !tbaa !3
  store ptr %1, ptr %6, align 8, !tbaa !3
  store ptr %2, ptr %7, align 8, !tbaa !12
  store ptr %3, ptr %8, align 8, !tbaa !12
  call void @llvm.lifetime.start.p0(i64 8, ptr %9) #13
  %26 = load ptr, ptr %6, align 8, !tbaa !3
  %27 = call noundef nonnull align 8 dereferenceable(8) ptr @_ZNK2cv3VecIdLi3EEixEi(ptr noundef nonnull align 8 dereferenceable(24) %26, i32 noundef 0)
  %28 = load double, ptr %27, align 8, !tbaa !14
  %29 = load ptr, ptr %5, align 8, !tbaa !3
  %30 = call noundef nonnull align 8 dereferenceable(8) ptr @_ZNK2cv3VecIdLi3EEixEi(ptr noundef nonnull align 8 dereferenceable(24) %29, i32 noundef 0)
  %31 = load double, ptr %30, align 8, !tbaa !14
  %32 = fsub double %28, %31
  store double %32, ptr %9, align 8, !tbaa !14
  call void @llvm.lifetime.start.p0(i64 8, ptr %10) #13
  %33 = load ptr, ptr %6, align 8, !tbaa !3
  %34 = call noundef nonnull align 8 dereferenceable(8) ptr @_ZNK2cv3VecIdLi3EEixEi(ptr noundef nonnull align 8 dereferenceable(24) %33, i32 noundef 1)
  %35 = load double, ptr %34, align 8, !tbaa !14
  %36 = load ptr, ptr %5, align 8, !tbaa !3
  %37 = call noundef nonnull align 8 dereferenceable(8) ptr @_ZNK2cv3VecIdLi3EEixEi(ptr noundef nonnull align 8 dereferenceable(24) %36, i32 noundef 1)
  %38 = load double, ptr %37, align 8, !tbaa !14
  %39 = fsub double %35, %38
  store double %39, ptr %10, align 8, !tbaa !14
  call void @llvm.lifetime.start.p0(i64 8, ptr %11) #13
  %40 = load ptr, ptr %6, align 8, !tbaa !3
  %41 = call noundef nonnull align 8 dereferenceable(8) ptr @_ZNK2cv3VecIdLi3EEixEi(ptr noundef nonnull align 8 dereferenceable(24) %40, i32 noundef 2)
  %42 = load double, ptr %41, align 8, !tbaa !14
  %43 = load ptr, ptr %5, align 8, !tbaa !3
  %44 = call noundef nonnull align 8 dereferenceable(8) ptr @_ZNK2cv3VecIdLi3EEixEi(ptr noundef nonnull align 8 dereferenceable(24) %43, i32 noundef 2)
  %45 = load double, ptr %44, align 8, !tbaa !14
  %46 = fsub double %42, %45
  store double %46, ptr %11, align 8, !tbaa !14
  call void @llvm.lifetime.start.p0(i64 8, ptr %12) #13
  %47 = load ptr, ptr %5, align 8, !tbaa !3
  %48 = call noundef nonnull align 8 dereferenceable(8) ptr @_ZNK2cv3VecIdLi3EEixEi(ptr noundef nonnull align 8 dereferenceable(24) %47, i32 noundef 1)
  %49 = load double, ptr %48, align 8, !tbaa !14
  %50 = call double @pow(double noundef %49, double noundef 2.000000e+00) #13, !tbaa !10
  %51 = load ptr, ptr %5, align 8, !tbaa !3
  %52 = call noundef nonnull align 8 dereferenceable(8) ptr @_ZNK2cv3VecIdLi3EEixEi(ptr noundef nonnull align 8 dereferenceable(24) %51, i32 noundef 2)
  %53 = load double, ptr %52, align 8, !tbaa !14
  %54 = call double @pow(double noundef %53, double noundef 2.000000e+00) #13, !tbaa !10
  %55 = fadd double %50, %54
  %56 = call double @sqrt(double noundef %55) #13, !tbaa !10
  store double %56, ptr %12, align 8, !tbaa !14
  call void @llvm.lifetime.start.p0(i64 8, ptr %13) #13
  %57 = load ptr, ptr %6, align 8, !tbaa !3
  %58 = call noundef nonnull align 8 dereferenceable(8) ptr @_ZNK2cv3VecIdLi3EEixEi(ptr noundef nonnull align 8 dereferenceable(24) %57, i32 noundef 1)
  %59 = load double, ptr %58, align 8, !tbaa !14
  %60 = call double @pow(double noundef %59, double noundef 2.000000e+00) #13, !tbaa !10
  %61 = load ptr, ptr %6, align 8, !tbaa !3
  %62 = call noundef nonnull align 8 dereferenceable(8) ptr @_ZNK2cv3VecIdLi3EEixEi(ptr noundef nonnull align 8 dereferenceable(24) %61, i32 noundef 2)
  %63 = load double, ptr %62, align 8, !tbaa !14
  %64 = call double @pow(double noundef %63, double noundef 2.000000e+00) #13, !tbaa !10
  %65 = fadd double %60, %64
  %66 = call double @sqrt(double noundef %65) #13, !tbaa !10
  store double %66, ptr %13, align 8, !tbaa !14
  call void @llvm.lifetime.start.p0(i64 8, ptr %14) #13
  %67 = load double, ptr %13, align 8, !tbaa !14
  %68 = load double, ptr %12, align 8, !tbaa !14
  %69 = fsub double %67, %68
  store double %69, ptr %14, align 8, !tbaa !14
  call void @llvm.lifetime.start.p0(i64 8, ptr %15) #13
  %70 = load double, ptr %10, align 8, !tbaa !14
  %71 = call noundef double @_ZSt3powIdiEN9__gnu_cxx11__promote_2IT_T0_NS0_9__promoteIS2_Xsr3std12__is_integerIS2_EE7__valueEE6__typeENS4_IS3_Xsr3std12__is_integerIS3_EE7__valueEE6__typeEE6__typeES2_S3_(double noundef %70, i32 noundef 2)
  %72 = load double, ptr %11, align 8, !tbaa !14
  %73 = call noundef double @_ZSt3powIdiEN9__gnu_cxx11__promote_2IT_T0_NS0_9__promoteIS2_Xsr3std12__is_integerIS2_EE7__valueEE6__typeENS4_IS3_Xsr3std12__is_integerIS3_EE7__valueEE6__typeEE6__typeES2_S3_(double noundef %72, i32 noundef 2)
  %74 = fadd double %71, %73
  %75 = load double, ptr %14, align 8, !tbaa !14
  %76 = call noundef double @_ZSt3powIdiEN9__gnu_cxx11__promote_2IT_T0_NS0_9__promoteIS2_Xsr3std12__is_integerIS2_EE7__valueEE6__typeENS4_IS3_Xsr3std12__is_integerIS3_EE7__valueEE6__typeEE6__typeES2_S3_(double noundef %75, i32 noundef 2)
  %77 = fsub double %74, %76
  %78 = call double @sqrt(double noundef %77) #13, !tbaa !10
  store double %78, ptr %15, align 8, !tbaa !14
  call void @llvm.lifetime.start.p0(i64 8, ptr %16) #13
  %79 = load double, ptr %12, align 8, !tbaa !14
  %80 = fcmp oeq double %79, 0.000000e+00
  br i1 %80, label %81, label %82

81:                                               ; preds = %4
  store double 0.000000e+00, ptr %16, align 8, !tbaa !14
  br label %96

82:                                               ; preds = %4
  %83 = load ptr, ptr %5, align 8, !tbaa !3
  %84 = call noundef nonnull align 8 dereferenceable(8) ptr @_ZNK2cv3VecIdLi3EEixEi(ptr noundef nonnull align 8 dereferenceable(24) %83, i32 noundef 2)
  %85 = load double, ptr %84, align 8, !tbaa !14
  %86 = load ptr, ptr %5, align 8, !tbaa !3
  %87 = call noundef nonnull align 8 dereferenceable(8) ptr @_ZNK2cv3VecIdLi3EEixEi(ptr noundef nonnull align 8 dereferenceable(24) %86, i32 noundef 1)
  %88 = load double, ptr %87, align 8, !tbaa !14
  %89 = call double @atan2(double noundef %85, double noundef %88) #13, !tbaa !10
  store double %89, ptr %16, align 8, !tbaa !14
  %90 = load double, ptr %16, align 8, !tbaa !14
  %91 = fcmp olt double %90, 0.000000e+00
  br i1 %91, label %92, label %95

92:                                               ; preds = %82
  %93 = load double, ptr %16, align 8, !tbaa !14
  %94 = fadd double %93, 0x401921FB54442D18
  store double %94, ptr %16, align 8, !tbaa !14
  br label %95

95:                                               ; preds = %92, %82
  br label %96

96:                                               ; preds = %95, %81
  call void @llvm.lifetime.start.p0(i64 8, ptr %17) #13
  %97 = load double, ptr %12, align 8, !tbaa !14
  %98 = call noundef double @_ZSt3powIdiEN9__gnu_cxx11__promote_2IT_T0_NS0_9__promoteIS2_Xsr3std12__is_integerIS2_EE7__valueEE6__typeENS4_IS3_Xsr3std12__is_integerIS3_EE7__valueEE6__typeEE6__typeES2_S3_(double noundef %97, i32 noundef 2)
  %99 = load double, ptr %12, align 8, !tbaa !14
  %100 = call noundef double @_ZSt3powIdiEN9__gnu_cxx11__promote_2IT_T0_NS0_9__promoteIS2_Xsr3std12__is_integerIS2_EE7__valueEE6__typeENS4_IS3_Xsr3std12__is_integerIS3_EE7__valueEE6__typeEE6__typeES2_S3_(double noundef %99, i32 noundef 4)
  %101 = fadd double %100, 1.900000e+03
  %102 = call double @sqrt(double noundef %101) #13, !tbaa !10
  %103 = fdiv double %98, %102
  store double %103, ptr %17, align 8, !tbaa !14
  call void @llvm.lifetime.start.p0(i64 8, ptr %18) #13
  %104 = load double, ptr %16, align 8, !tbaa !14
  call void @llvm.lifetime.start.p0(i64 8, ptr %19) #13
  store double 1.640000e+02, ptr %19, align 8, !tbaa !14
  %105 = call noundef double @_ZN2cv3ccm5toRadERKd(ptr noundef nonnull align 8 dereferenceable(8) %19)
  %106 = fcmp ogt double %104, %105
  call void @llvm.lifetime.start.p0(i64 8, ptr %20) #13
  call void @llvm.lifetime.start.p0(i64 8, ptr %21) #13
  call void @llvm.lifetime.start.p0(i64 8, ptr %22) #13
  br i1 %106, label %107, label %119

107:                                              ; preds = %96
  %108 = load double, ptr %16, align 8, !tbaa !14
  store double 3.450000e+02, ptr %20, align 8, !tbaa !14
  %109 = call noundef double @_ZN2cv3ccm5toRadERKd(ptr noundef nonnull align 8 dereferenceable(8) %20)
  %110 = fcmp ole double %108, %109
  br i1 %110, label %111, label %119

111:                                              ; preds = %107
  %112 = load double, ptr %16, align 8, !tbaa !14
  store double 1.680000e+02, ptr %21, align 8, !tbaa !14
  %113 = call noundef double @_ZN2cv3ccm5toRadERKd(ptr noundef nonnull align 8 dereferenceable(8) %21)
  %114 = fadd double %112, %113
  %115 = call double @cos(double noundef %114) #13, !tbaa !10
  %116 = fmul double 2.000000e-01, %115
  %117 = call noundef double @_ZSt3absd(double noundef %116)
  %118 = fadd double 5.600000e-01, %117
  br label %127

119:                                              ; preds = %107, %96
  %120 = load double, ptr %16, align 8, !tbaa !14
  store double 3.500000e+01, ptr %22, align 8, !tbaa !14
  %121 = call noundef double @_ZN2cv3ccm5toRadERKd(ptr noundef nonnull align 8 dereferenceable(8) %22)
  %122 = fadd double %120, %121
  %123 = call double @cos(double noundef %122) #13, !tbaa !10
  %124 = fmul double 4.000000e-01, %123
  %125 = call noundef double @_ZSt3absd(double noundef %124)
  %126 = fadd double 3.600000e-01, %125
  br label %127

127:                                              ; preds = %119, %111
  %128 = phi double [ %118, %111 ], [ %126, %119 ]
  call void @llvm.lifetime.end.p0(i64 8, ptr %22) #13
  call void @llvm.lifetime.end.p0(i64 8, ptr %21) #13
  call void @llvm.lifetime.end.p0(i64 8, ptr %20) #13
  call void @llvm.lifetime.end.p0(i64 8, ptr %19) #13
  store double %128, ptr %18, align 8, !tbaa !14
  call void @llvm.lifetime.start.p0(i64 8, ptr %23) #13
  %129 = load ptr, ptr %5, align 8, !tbaa !3
  %130 = call noundef nonnull align 8 dereferenceable(8) ptr @_ZNK2cv3VecIdLi3EEixEi(ptr noundef nonnull align 8 dereferenceable(24) %129, i32 noundef 0)
  %131 = load double, ptr %130, align 8, !tbaa !14
  %132 = fcmp olt double %131, 1.600000e+01
  br i1 %132, label %133, label %134

133:                                              ; preds = %127
  br label %144

134:                                              ; preds = %127
  %135 = load ptr, ptr %5, align 8, !tbaa !3
  %136 = call noundef nonnull align 8 dereferenceable(8) ptr @_ZNK2cv3VecIdLi3EEixEi(ptr noundef nonnull align 8 dereferenceable(24) %135, i32 noundef 0)
  %137 = load double, ptr %136, align 8, !tbaa !14
  %138 = fmul double 4.097500e-02, %137
  %139 = load ptr, ptr %5, align 8, !tbaa !3
  %140 = call noundef nonnull align 8 dereferenceable(8) ptr @_ZNK2cv3VecIdLi3EEixEi(ptr noundef nonnull align 8 dereferenceable(24) %139, i32 noundef 0)
  %141 = load double, ptr %140, align 8, !tbaa !14
  %142 = call double @llvm.fmuladd.f64(double 1.765000e-02, double %141, double 1.000000e+00)
  %143 = fdiv double %138, %142
  br label %144

144:                                              ; preds = %134, %133
  %145 = phi double [ 5.110000e-01, %133 ], [ %143, %134 ]
  store double %145, ptr %23, align 8, !tbaa !14
  call void @llvm.lifetime.start.p0(i64 8, ptr %24) #13
  %146 = load double, ptr %12, align 8, !tbaa !14
  %147 = fmul double 6.380000e-02, %146
  %148 = load double, ptr %12, align 8, !tbaa !14
  %149 = call double @llvm.fmuladd.f64(double 1.310000e-02, double %148, double 1.000000e+00)
  %150 = fdiv double %147, %149
  %151 = fadd double %150, 6.380000e-01
  store double %151, ptr %24, align 8, !tbaa !14
  call void @llvm.lifetime.start.p0(i64 8, ptr %25) #13
  %152 = load double, ptr %24, align 8, !tbaa !14
  %153 = load double, ptr %17, align 8, !tbaa !14
  %154 = load double, ptr %18, align 8, !tbaa !14
  %155 = call double @llvm.fmuladd.f64(double %153, double %154, double 1.000000e+00)
  %156 = load double, ptr %17, align 8, !tbaa !14
  %157 = fsub double %155, %156
  %158 = fmul double %152, %157
  store double %158, ptr %25, align 8, !tbaa !14
  %159 = load double, ptr %9, align 8, !tbaa !14
  %160 = load ptr, ptr %7, align 8, !tbaa !12
  %161 = load double, ptr %160, align 8, !tbaa !14
  %162 = load double, ptr %23, align 8, !tbaa !14
  %163 = fmul double %161, %162
  %164 = fdiv double %159, %163
  %165 = call double @pow(double noundef %164, double noundef 2.000000e+00) #13, !tbaa !10
  %166 = load double, ptr %14, align 8, !tbaa !14
  %167 = load ptr, ptr %8, align 8, !tbaa !12
  %168 = load double, ptr %167, align 8, !tbaa !14
  %169 = load double, ptr %24, align 8, !tbaa !14
  %170 = fmul double %168, %169
  %171 = fdiv double %166, %170
  %172 = call double @pow(double noundef %171, double noundef 2.000000e+00) #13, !tbaa !10
  %173 = fadd double %165, %172
  %174 = load double, ptr %15, align 8, !tbaa !14
  %175 = load double, ptr %25, align 8, !tbaa !14
  %176 = fdiv double %174, %175
  %177 = call double @pow(double noundef %176, double noundef 2.000000e+00) #13, !tbaa !10
  %178 = fadd double %173, %177
  %179 = call double @sqrt(double noundef %178) #13, !tbaa !10
  call void @llvm.lifetime.end.p0(i64 8, ptr %25) #13
  call void @llvm.lifetime.end.p0(i64 8, ptr %24) #13
  call void @llvm.lifetime.end.p0(i64 8, ptr %23) #13
  call void @llvm.lifetime.end.p0(i64 8, ptr %18) #13
  call void @llvm.lifetime.end.p0(i64 8, ptr %17) #13
  call void @llvm.lifetime.end.p0(i64 8, ptr %16) #13
  call void @llvm.lifetime.end.p0(i64 8, ptr %15) #13
  call void @llvm.lifetime.end.p0(i64 8, ptr %14) #13
  call void @llvm.lifetime.end.p0(i64 8, ptr %13) #13
  call void @llvm.lifetime.end.p0(i64 8, ptr %12) #13
  call void @llvm.lifetime.end.p0(i64 8, ptr %11) #13
  call void @llvm.lifetime.end.p0(i64 8, ptr %10) #13
  call void @llvm.lifetime.end.p0(i64 8, ptr %9) #13
  ret double %179
}