; Function Attrs: mustprogress nofree nounwind willreturn memory(write, argmem: readwrite) uwtable
define hidden noundef double @_ZN2cv3ccm8deltaCMCERKNS_3VecIdLi3EEES4_RKdS6_(ptr noundef nonnull readonly align 8 captures(none) dereferenceable(24) %0, ptr noundef nonnull readonly align 8 captures(none) dereferenceable(24) %1, ptr noundef nonnull readonly align 8 captures(none) dereferenceable(8) %2, ptr noundef nonnull readonly align 8 captures(none) dereferenceable(8) %3) local_unnamed_addr #2 {
  %5 = load double, ptr %1, align 8, !tbaa !6
  %6 = load double, ptr %0, align 8, !tbaa !6
  %7 = getelementptr inbounds nuw i8, ptr %1, i64 8
  %8 = load double, ptr %7, align 8, !tbaa !6
  %9 = getelementptr inbounds nuw i8, ptr %0, i64 8
  %10 = load double, ptr %9, align 8, !tbaa !6
  %11 = fsub double %8, %10
  %12 = getelementptr inbounds nuw i8, ptr %1, i64 16
  %13 = load double, ptr %12, align 8, !tbaa !6
  %14 = getelementptr inbounds nuw i8, ptr %0, i64 16
  %15 = load double, ptr %14, align 8, !tbaa !6
  %16 = fsub double %13, %15
  %square = fmul double %10, %10
  %square44 = fmul double %15, %15
  %17 = fadd double %square, %square44
  %sqrt57 = tail call double @llvm.sqrt.f64(double %17)
  %square45 = fmul double %8, %8
  %square46 = fmul double %13, %13
  %18 = fadd double %square45, %square46
  %sqrt = tail call double @llvm.sqrt.f64(double %18)
  %19 = fsub double %sqrt, %sqrt57
  %square53 = fmul double %11, %11
  %square54 = fmul double %16, %16
  %20 = fadd double %square53, %square54
  %square55 = fmul double %19, %19
  %21 = fsub double %20, %square55
  %22 = tail call double @sqrt(double noundef %21) #16, !tbaa !13
  %23 = fcmp oeq double %17, 0.000000e+00
  br i1 %23, label %29, label %24

24:                                               ; preds = %4
  %25 = tail call double @atan2(double noundef %15, double noundef %10) #16, !tbaa !13
  %26 = fcmp olt double %25, 0.000000e+00
  br i1 %26, label %27, label %29

27:                                               ; preds = %24
  %28 = fadd double %25, 0x401921FB54442D18
  br label %29

29:                                               ; preds = %4, %24, %27
  %.0 = phi double [ %28, %27 ], [ %25, %24 ], [ 0.000000e+00, %4 ]
  %30 = tail call noundef double @pow(double noundef %sqrt57, double noundef 4.000000e+00) #16, !tbaa !13
  %31 = fadd double %30, 1.900000e+03
  %32 = tail call double @sqrt(double noundef %31) #16, !tbaa !13
  %33 = fcmp ule double %.0, 0x4006E6127FF9D971
  %34 = fcmp ugt double %.0, 0x401815E630C155E2
  %or.cond = or i1 %33, %34
  %. = select i1 %or.cond, double 0x3FE38C35418A5BF6, double 0x4007750CB50C6E5B
  %.63 = select i1 %or.cond, double 4.000000e-01, double 2.000000e-01
  %.64 = select i1 %or.cond, double 3.600000e-01, double 5.600000e-01
  %35 = fadd double %.0, %.
  %36 = tail call double @cos(double noundef %35) #16, !tbaa !13
  %37 = fmul double %36, %.63
  %38 = tail call noundef double @llvm.fabs.f64(double %37)
  %39 = fadd double %38, %.64
  %square56 = fmul double %sqrt57, %sqrt57
  %40 = fcmp olt double %6, 1.600000e+01
  %41 = fmul double %6, 4.097500e-02
  %42 = tail call double @llvm.fmuladd.f64(double %6, double 1.765000e-02, double 1.000000e+00)
  %43 = fdiv double %41, %42
  %44 = select i1 %40, double 5.110000e-01, double %43
  %45 = fdiv double %square56, %32
  %46 = fsub double %5, %6
  %47 = fmul double %sqrt57, 6.380000e-02
  %48 = tail call double @llvm.fmuladd.f64(double %sqrt57, double 1.310000e-02, double 1.000000e+00)
  %49 = fdiv double %47, %48
  %50 = fadd double %49, 6.380000e-01
  %51 = tail call double @llvm.fmuladd.f64(double %45, double %39, double 1.000000e+00)
  %52 = fsub double %51, %45
  %53 = fmul double %50, %52
  %54 = load double, ptr %2, align 8, !tbaa !6
  %55 = fmul double %44, %54
  %56 = fdiv double %46, %55
  %square47 = fmul double %56, %56
  %57 = load double, ptr %3, align 8, !tbaa !6
  %58 = fmul double %50, %57
  %59 = fdiv double %19, %58
  %square48 = fmul double %59, %59
  %60 = fadd double %square47, %square48
  %61 = fdiv double %22, %53
  %square49 = fmul double %61, %61
  %62 = fadd double %square49, %60
  %sqrt58 = tail call double @llvm.sqrt.f64(double %62)
  ret double %sqrt58
}